target datalayout = "e-m:e-p270:32:32-p271:32:32-p272:64:64-i64:64-i128:128-f80:128-n8:16:32:64-S128"
target triple = "x86_64-unknown-linux-gnu"

%struct.HWLM = type { i8, i64, %union.AccelAux, %union.AccelAux }
%union.AccelAux = type { %struct.anon.54 }
%struct.anon.54 = type { i8, i8, <2 x i64>, <2 x i64>, <2 x i64>, <2 x i64> }

; Function Attrs: mustprogress uwtable
define hidden noundef i64 @_ZN3ue28hwlmSizeEPK4HWLM(ptr noundef %h) #1 {
entry:
  %retval = alloca i64, align 8
  %h.addr = alloca ptr, align 8
  %engSize = alloca i64, align 8
  store ptr %h, ptr %h.addr, align 8
  store i64 0, ptr %engSize, align 8
  %0 = load ptr, ptr %h.addr, align 8
  %type = getelementptr inbounds %struct.HWLM, ptr %0, i32 0, i32 0
  %1 = load i8, ptr %type, align 16
  %conv = zext i8 %1 to i32
  switch i32 %conv, label %sw.epilog [
    i32 16, label %sw.bb
    i32 12, label %sw.bb1
  ]

sw.bb:                                            ; preds = %entry
  %2 = load ptr, ptr %h.addr, align 8
  %add.ptr = getelementptr inbounds i8, ptr %2, i64 192
  %call = call noundef i64 @_ZN3ue28noodSizeEPK9noodTable(ptr noundef %add.ptr)
  store i64 %call, ptr %engSize, align 8
  br label %sw.epilog

sw.bb1:                                           ; preds = %entry
  %3 = load ptr, ptr %h.addr, align 8
  %add.ptr2 = getelementptr inbounds i8, ptr %3, i64 192
  %call3 = call noundef i64 @_ZN3ue27fdrSizeEPK3FDR(ptr noundef %add.ptr2)
  store i64 %call3, ptr %engSize, align 8
  br label %sw.epilog

sw.epilog:                                        ; preds = %sw.bb1, %sw.bb, %entry
  %4 = load i64, ptr %engSize, align 8
  %tobool = icmp ne i64 %4, 0
  br i1 %tobool, label %if.end, label %if.then

if.then:                                          ; preds = %sw.epilog
  store i64 0, ptr %retval, align 8
  br label %return

if.end:                                           ; preds = %sw.epilog
  %5 = load i64, ptr %engSize, align 8
  %add = add i64 %5, 192
  store i64 %add, ptr %retval, align 8
  br label %return

return:                                           ; preds = %if.end, %if.then
  %6 = load i64, ptr %retval, align 8
  ret i64 %6
}