; Function Attrs: mustprogress uwtable
define hidden noundef i64 @_ZN3ue28hwlmSizeEPK4HWLM(ptr noundef %h) local_unnamed_addr #3 {
entry:
  %0 = load i8, ptr %h, align 16
  switch i8 %0, label %sw.epilog.thread [
    i8 16, label %sw.bb
    i8 12, label %sw.bb1
  ]

sw.bb:                                            ; preds = %entry
  %add.ptr = getelementptr inbounds i8, ptr %h, i64 192
  %call = tail call noundef i64 @_ZN3ue28noodSizeEPK9noodTable(ptr noundef nonnull %add.ptr)
  br label %sw.epilog

sw.bb1:                                           ; preds = %entry
  %add.ptr2 = getelementptr inbounds i8, ptr %h, i64 192
  %call3 = tail call noundef i64 @_ZN3ue27fdrSizeEPK3FDR(ptr noundef nonnull %add.ptr2)
  br label %sw.epilog

sw.epilog:                                        ; preds = %sw.bb1, %sw.bb
  %engSize.0 = phi i64 [ %call3, %sw.bb1 ], [ %call, %sw.bb ]
  %tobool.not = icmp eq i64 %engSize.0, 0
  %add = add i64 %engSize.0, 192
  br i1 %tobool.not, label %sw.epilog.thread, label %1

sw.epilog.thread:                                 ; preds = %entry, %sw.epilog
  br label %1

1:                                                ; preds = %sw.epilog, %sw.epilog.thread
  %2 = phi i64 [ 0, %sw.epilog.thread ], [ %add, %sw.epilog ]
  ret i64 %2
}